target datalayout = "e-m:e-p270:32:32-p271:32:32-p272:64:64-i64:64-i128:128-f80:128-n8:16:32:64-S128"
target triple = "x86_64-pc-linux-gnu"

%struct.archive_read = type { %struct.archive, ptr, i32, i64, i64, %struct.archive_read_client, [16 x %struct.archive_read_filter_bidder], ptr, i32, i64, i32, i32, [16 x %struct.archive_format_descriptor], ptr, ptr, ptr, %struct.anon }
%struct.archive = type { i32, i32, ptr, i32, ptr, i32, i32, ptr, %struct.archive_string, ptr, i32, i32, ptr, ptr, i64, i64, i64, i8, i64 }
%struct.archive_string = type { ptr, i64, i64 }
%struct.archive_read_client = type { ptr, ptr, ptr, ptr, ptr, ptr, i32, i32, i64, ptr }
%struct.archive_read_filter_bidder = type { ptr, ptr, ptr }
%struct.archive_format_descriptor = type { ptr, ptr, ptr, ptr, ptr, ptr, ptr, ptr, ptr, ptr, ptr }
%struct.anon = type { ptr, ptr, i32, ptr, ptr }
%struct.mtree = type { %struct.archive_string, i64, ptr, i64, i32, i32, ptr, ptr, ptr, %struct.archive_rb_tree, %struct.archive_string, %struct.archive_string, ptr, %struct.archive_rb_tree, i64, i8 }
%struct.archive_rb_tree = type { ptr, ptr }

@.str.3 = private unnamed_addr constant [8 x i8] c"checkfs\00", align 1

; Function Attrs: nounwind uwtable
define internal i32 @archive_read_format_mtree_options(ptr noundef %0, ptr noundef %1, ptr noundef %2) #0 {
  %4 = alloca i32, align 4
  %5 = alloca ptr, align 8
  %6 = alloca ptr, align 8
  %7 = alloca ptr, align 8
  %8 = alloca ptr, align 8
  store ptr %0, ptr %5, align 8
  store ptr %1, ptr %6, align 8
  store ptr %2, ptr %7, align 8
  %9 = load ptr, ptr %5, align 8
  %10 = getelementptr inbounds %struct.archive_read, ptr %9, i32 0, i32 13
  %11 = load ptr, ptr %10, align 8
  %12 = getelementptr inbounds %struct.archive_format_descriptor, ptr %11, i32 0, i32 0
  %13 = load ptr, ptr %12, align 8
  store ptr %13, ptr %8, align 8
  %14 = load ptr, ptr %6, align 8
  %15 = call i32 @strcmp(ptr noundef %14, ptr noundef @.str.3) #11
  %16 = icmp eq i32 %15, 0
  br i1 %16, label %17, label %33

17:                                               ; preds = %3
  %18 = load ptr, ptr %7, align 8
  %19 = icmp eq ptr %18, null
  br i1 %19, label %26, label %20

20:                                               ; preds = %17
  %21 = load ptr, ptr %7, align 8
  %22 = getelementptr inbounds i8, ptr %21, i64 0
  %23 = load i8, ptr %22, align 1
  %24 = sext i8 %23 to i32
  %25 = icmp eq i32 %24, 0
  br i1 %25, label %26, label %29

26:                                               ; preds = %20, %17
  %27 = load ptr, ptr %8, align 8
  %28 = getelementptr inbounds %struct.mtree, ptr %27, i32 0, i32 15
  store i8 0, ptr %28, align 8
  br label %32

29:                                               ; preds = %20
  %30 = load ptr, ptr %8, align 8
  %31 = getelementptr inbounds %struct.mtree, ptr %30, i32 0, i32 15
  store i8 1, ptr %31, align 8
  br label %32

32:                                               ; preds = %29, %26
  store i32 0, ptr %4, align 4
  br label %34

33:                                               ; preds = %3
  store i32 -20, ptr %4, align 4
  br label %34

34:                                               ; preds = %33, %32
  %35 = load i32, ptr %4, align 4
  ret i32 %35
}