; Function Attrs: mustprogress nofree nounwind willreturn memory(readwrite, inaccessiblemem: none) uwtable
define internal range(i32 -20, 1) i32 @archive_read_format_mtree_options(ptr noundef readonly captures(none) %0, ptr noundef readonly captures(none) %1, ptr noundef readonly %2) #4 {
  %4 = getelementptr inbounds nuw i8, ptr %0, i64 2072
  %5 = load ptr, ptr %4, align 8
  %6 = load ptr, ptr %5, align 8
  %7 = tail call i32 @strcmp(ptr noundef nonnull dereferenceable(1) %1, ptr noundef nonnull dereferenceable(8) @.str.3) #21
  %8 = icmp eq i32 %7, 0
  br i1 %8, label %9, label %15

9:                                                ; preds = %3
  %10 = icmp eq ptr %2, null
  br i1 %10, label %.sink.split, label %11

11:                                               ; preds = %9
  %12 = load i8, ptr %2, align 1
  %13 = icmp ne i8 %12, 0
  %spec.select = zext i1 %13 to i8
  br label %.sink.split

.sink.split:                                      ; preds = %11, %9
  %.sink = phi i8 [ 0, %9 ], [ %spec.select, %11 ]
  %14 = getelementptr inbounds nuw i8, ptr %6, i64 176
  store i8 %.sink, ptr %14, align 8
  br label %15

15:                                               ; preds = %.sink.split, %3
  %.0 = phi i32 [ -20, %3 ], [ 0, %.sink.split ]
  ret i32 %.0
}